target datalayout = "e-m:e-p270:32:32-p271:32:32-p272:64:64-i64:64-i128:128-f80:128-n8:16:32:64-S128"
target triple = "x86_64-pc-linux-gnu"

%"struct.vcpkg::ParsedArguments" = type { %"class.std::set", %"class.std::map", %"class.std::map.6", %"class.std::vector" }
%"class.std::set" = type { %"class.std::_Rb_tree" }
%"class.std::_Rb_tree" = type { %"struct.std::_Rb_tree<vcpkg::StringLiteral, vcpkg::StringLiteral, std::_Identity<vcpkg::StringLiteral>, std::less<void>>::_Rb_tree_impl" }
%"struct.std::_Rb_tree<vcpkg::StringLiteral, vcpkg::StringLiteral, std::_Identity<vcpkg::StringLiteral>, std::less<void>>::_Rb_tree_impl" = type { [8 x i8], %"struct.std::_Rb_tree_header" }
%"struct.std::_Rb_tree_header" = type { %"struct.std::_Rb_tree_node_base", i64 }
%"struct.std::_Rb_tree_node_base" = type { i32, ptr, ptr, ptr }
%"class.std::map" = type { %"class.std::_Rb_tree.2" }
%"class.std::_Rb_tree.2" = type { %"struct.std::_Rb_tree<vcpkg::StringLiteral, std::pair<const vcpkg::StringLiteral, std::__cxx11::basic_string<char>>, std::_Select1st<std::pair<const vcpkg::StringLiteral, std::__cxx11::basic_string<char>>>, std::less<void>>::_Rb_tree_impl" }
%"struct.std::_Rb_tree<vcpkg::StringLiteral, std::pair<const vcpkg::StringLiteral, std::__cxx11::basic_string<char>>, std::_Select1st<std::pair<const vcpkg::StringLiteral, std::__cxx11::basic_string<char>>>, std::less<void>>::_Rb_tree_impl" = type { [8 x i8], %"struct.std::_Rb_tree_header" }
%"class.std::map.6" = type { %"class.std::_Rb_tree.7" }
%"class.std::_Rb_tree.7" = type { %"struct.std::_Rb_tree<vcpkg::StringLiteral, std::pair<const vcpkg::StringLiteral, std::vector<std::__cxx11::basic_string<char>>>, std::_Select1st<std::pair<const vcpkg::StringLiteral, std::vector<std::__cxx11::basic_string<char>>>>, std::less<void>>::_Rb_tree_impl" }
%"struct.std::_Rb_tree<vcpkg::StringLiteral, std::pair<const vcpkg::StringLiteral, std::vector<std::__cxx11::basic_string<char>>>, std::_Select1st<std::pair<const vcpkg::StringLiteral, std::vector<std::__cxx11::basic_string<char>>>>, std::less<void>>::_Rb_tree_impl" = type { [8 x i8], %"struct.std::_Rb_tree_header" }
%"class.std::vector" = type { %"struct.std::_Vector_base" }
%"struct.std::_Vector_base" = type { %"struct.std::_Vector_base<std::__cxx11::basic_string<char>, std::allocator<std::__cxx11::basic_string<char>>>::_Vector_impl" }
%"struct.std::_Vector_base<std::__cxx11::basic_string<char>, std::allocator<std::__cxx11::basic_string<char>>>::_Vector_impl" = type { %"struct.std::_Vector_base<std::__cxx11::basic_string<char>, std::allocator<std::__cxx11::basic_string<char>>>::_Vector_impl_data" }
%"struct.std::_Vector_base<std::__cxx11::basic_string<char>, std::allocator<std::__cxx11::basic_string<char>>>::_Vector_impl_data" = type { ptr, ptr, ptr }
%"struct.vcpkg::LineInfo" = type { i32, ptr }
%"struct.vcpkg::InstalledPaths" = type { %"struct.vcpkg::Path" }
%"struct.vcpkg::Path" = type { %"class.std::__cxx11::basic_string" }
%"class.std::__cxx11::basic_string" = type { %"struct.std::__cxx11::basic_string<char>::_Alloc_hider", i64, %union.anon.18 }
%"struct.std::__cxx11::basic_string<char>::_Alloc_hider" = type { ptr }
%union.anon.18 = type { i64, [8 x i8] }

@.str.2 = private unnamed_addr constant [126 x i8] c"generated/home/dtcxzyw/WorkSpace/Projects/compilers/llvm-opt-benchmark/bench/vcpkg/vcpkg-tool/src/vcpkg/commands.ci-clean.cpp\00", align 1

; Function Attrs: mustprogress nounwind uwtable
define linkonce_odr dso_local noundef nonnull align 8 dereferenceable(32) ptr @_ZNK5vcpkg14InstalledPaths4rootEv(ptr noundef nonnull align 8 dereferenceable(32) %0) #4 comdat align 2 {
  %2 = alloca ptr, align 8
  store ptr %0, ptr %2, align 8, !tbaa !27
  %3 = load ptr, ptr %2, align 8
  %4 = getelementptr inbounds nuw %"struct.vcpkg::InstalledPaths", ptr %3, i32 0, i32 0
  ret ptr %4
}

; Function Attrs: mustprogress uwtable
define dso_local void @_ZN5vcpkg25command_ci_clean_and_exitERKNS_17VcpkgCmdArgumentsERKNS_10VcpkgPathsE(ptr noundef nonnull align 8 dereferenceable(1840) %0, ptr noundef nonnull align 8 dereferenceable(440) %1) #0 {
  %3 = alloca ptr, align 8
  %4 = alloca ptr, align 8
  %5 = alloca %"struct.vcpkg::ParsedArguments", align 8
  %6 = alloca ptr, align 8
  %7 = alloca %"struct.vcpkg::LineInfo", align 8
  store ptr %0, ptr %3, align 8, !tbaa !4
  store ptr %1, ptr %4, align 8, !tbaa !9
  %8 = load ptr, ptr %3, align 8, !tbaa !4
  call void @_ZNK5vcpkg17VcpkgCmdArguments15parse_argumentsERKNS_15CommandMetadataE(ptr dead_on_unwind writable sret(%"struct.vcpkg::ParsedArguments") align 8 %5, ptr noundef nonnull align 8 dereferenceable(1840) %8, ptr noundef nonnull align 8 dereferenceable(184) @_ZN5vcpkg22CommandCiCleanMetadataE)
  call void @_ZN5vcpkg15ParsedArgumentsD2Ev(ptr noundef nonnull align 8 dereferenceable(168) %5) #16
  call void @llvm.lifetime.start.p0(i64 8, ptr %6) #16
  %9 = load ptr, ptr %4, align 8, !tbaa !9
  %10 = call noundef nonnull align 8 dereferenceable(8) ptr @_ZNK5vcpkg10VcpkgPaths14get_filesystemEv(ptr noundef nonnull align 8 dereferenceable(440) %9)
  store ptr %10, ptr %6, align 8, !tbaa !11
  %11 = load ptr, ptr %6, align 8, !tbaa !11
  %12 = load ptr, ptr %4, align 8, !tbaa !9
  %13 = call noundef nonnull align 8 dereferenceable(32) ptr @_ZNK5vcpkg10VcpkgPaths10buildtreesEv(ptr noundef nonnull align 8 dereferenceable(440) %12)
  call void @_ZN12_GLOBAL__N_115clear_directoryERKN5vcpkg10FilesystemERKNS0_4PathE(ptr noundef nonnull align 8 dereferenceable(8) %11, ptr noundef nonnull align 8 dereferenceable(32) %13)
  %14 = load ptr, ptr %6, align 8, !tbaa !11
  %15 = load ptr, ptr %4, align 8, !tbaa !9
  %16 = call noundef nonnull align 8 dereferenceable(32) ptr @_ZNK5vcpkg10VcpkgPaths9installedEv(ptr noundef nonnull align 8 dereferenceable(440) %15)
  %17 = call noundef nonnull align 8 dereferenceable(32) ptr @_ZNK5vcpkg14InstalledPaths4rootEv(ptr noundef nonnull align 8 dereferenceable(32) %16)
  call void @_ZN12_GLOBAL__N_115clear_directoryERKN5vcpkg10FilesystemERKNS0_4PathE(ptr noundef nonnull align 8 dereferenceable(8) %14, ptr noundef nonnull align 8 dereferenceable(32) %17)
  %18 = load ptr, ptr %6, align 8, !tbaa !11
  %19 = load ptr, ptr %4, align 8, !tbaa !9
  %20 = call noundef nonnull align 8 dereferenceable(32) ptr @_ZNK5vcpkg10VcpkgPaths8packagesEv(ptr noundef nonnull align 8 dereferenceable(440) %19)
  call void @_ZN12_GLOBAL__N_115clear_directoryERKN5vcpkg10FilesystemERKNS0_4PathE(ptr noundef nonnull align 8 dereferenceable(8) %18, ptr noundef nonnull align 8 dereferenceable(32) %20)
  call void @llvm.lifetime.start.p0(i64 16, ptr %7) #16
  %21 = getelementptr inbounds nuw %"struct.vcpkg::LineInfo", ptr %7, i32 0, i32 0
  store i32 48, ptr %21, align 8, !tbaa !13
  %22 = getelementptr inbounds nuw %"struct.vcpkg::LineInfo", ptr %7, i32 0, i32 1
  store ptr @.str.2, ptr %22, align 8, !tbaa !17
  call void @_ZN5vcpkg6Checks12exit_successERKNS_8LineInfoE(ptr noundef nonnull align 8 dereferenceable(16) %7) #17
  unreachable
}