; Function Attrs: mustprogress noreturn uwtable
define dso_local void @_ZN5vcpkg25command_ci_clean_and_exitERKNS_17VcpkgCmdArgumentsERKNS_10VcpkgPathsE(ptr noundef nonnull align 8 dereferenceable(1840) %0, ptr noundef nonnull align 8 dereferenceable(440) %1) local_unnamed_addr #0 {
  %3 = alloca %"struct.vcpkg::ParsedArguments", align 8
  %4 = alloca %"struct.vcpkg::LineInfo", align 8
  call void @_ZNK5vcpkg17VcpkgCmdArguments15parse_argumentsERKNS_15CommandMetadataE(ptr dead_on_unwind nonnull writable sret(%"struct.vcpkg::ParsedArguments") align 8 %3, ptr noundef nonnull align 8 dereferenceable(1840) %0, ptr noundef nonnull align 8 dereferenceable(184) @_ZN5vcpkg22CommandCiCleanMetadataE)
  call void @_ZN5vcpkg15ParsedArgumentsD2Ev(ptr noundef nonnull align 8 dereferenceable(168) %3) #19
  %5 = call noundef nonnull align 8 dereferenceable(8) ptr @_ZNK5vcpkg10VcpkgPaths14get_filesystemEv(ptr noundef nonnull align 8 dereferenceable(440) %1)
  %6 = call noundef nonnull align 8 dereferenceable(32) ptr @_ZNK5vcpkg10VcpkgPaths10buildtreesEv(ptr noundef nonnull align 8 dereferenceable(440) %1)
  call fastcc void @_ZN12_GLOBAL__N_115clear_directoryERKN5vcpkg10FilesystemERKNS0_4PathE(ptr noundef nonnull align 8 dereferenceable(8) %5, ptr noundef nonnull align 8 dereferenceable(32) %6)
  %7 = call noundef nonnull align 8 dereferenceable(32) ptr @_ZNK5vcpkg10VcpkgPaths9installedEv(ptr noundef nonnull align 8 dereferenceable(440) %1)
  call fastcc void @_ZN12_GLOBAL__N_115clear_directoryERKN5vcpkg10FilesystemERKNS0_4PathE(ptr noundef nonnull align 8 dereferenceable(8) %5, ptr noundef nonnull align 8 dereferenceable(32) %7)
  %8 = call noundef nonnull align 8 dereferenceable(32) ptr @_ZNK5vcpkg10VcpkgPaths8packagesEv(ptr noundef nonnull align 8 dereferenceable(440) %1)
  call fastcc void @_ZN12_GLOBAL__N_115clear_directoryERKN5vcpkg10FilesystemERKNS0_4PathE(ptr noundef nonnull align 8 dereferenceable(8) %5, ptr noundef nonnull align 8 dereferenceable(32) %8)
  call void @llvm.lifetime.start.p0(i64 16, ptr nonnull %4) #19
  store i32 48, ptr %4, align 8, !tbaa !4
  %9 = getelementptr inbounds nuw i8, ptr %4, i64 8
  store ptr @.str.2, ptr %9, align 8, !tbaa !11
  call void @_ZN5vcpkg6Checks12exit_successERKNS_8LineInfoE(ptr noundef nonnull align 8 dereferenceable(16) %4) #20
  unreachable
}